target datalayout = "e-m:e-p270:32:32-p271:32:32-p272:64:64-i64:64-i128:128-f80:128-n8:16:32:64-S128"
target triple = "x86_64-pc-linux-gnu"

; Function Attrs: nounwind uwtable
define internal void @draw_sample_point_rgba_scale(ptr noundef %0, i32 noundef %1, i32 noundef %2, ptr noundef %3, ptr noundef %4, i32 noundef %5) #1 {
  %7 = alloca ptr, align 8
  %8 = alloca i32, align 4
  %9 = alloca i32, align 4
  %10 = alloca ptr, align 8
  %11 = alloca ptr, align 8
  %12 = alloca i32, align 4
  store ptr %0, ptr %7, align 8, !tbaa !69
  store i32 %1, ptr %8, align 4, !tbaa !49
  store i32 %2, ptr %9, align 4, !tbaa !49
  store ptr %3, ptr %10, align 8, !tbaa !92
  store ptr %4, ptr %11, align 8, !tbaa !69
  store i32 %5, ptr %12, align 4, !tbaa !49
  %13 = load i32, ptr %12, align 4, !tbaa !49
  %14 = icmp sge i32 %13, 0
  br i1 %14, label %15, label %80

15:                                               ; preds = %6
  %16 = load i32, ptr %12, align 4, !tbaa !49
  %17 = load i32, ptr %8, align 4, !tbaa !49
  %18 = icmp slt i32 %16, %17
  br i1 %18, label %19, label %80

19:                                               ; preds = %15
  %20 = load ptr, ptr %11, align 8, !tbaa !69
  %21 = getelementptr inbounds i8, ptr %20, i64 0
  %22 = load i8, ptr %21, align 1, !tbaa !89
  %23 = zext i8 %22 to i32
  %24 = load ptr, ptr %7, align 8, !tbaa !69
  %25 = load i32, ptr %12, align 4, !tbaa !49
  %26 = load i32, ptr %9, align 4, !tbaa !49
  %27 = mul nsw i32 %25, %26
  %28 = add nsw i32 %27, 0
  %29 = sext i32 %28 to i64
  %30 = getelementptr inbounds i8, ptr %24, i64 %29
  %31 = load i8, ptr %30, align 1, !tbaa !89
  %32 = zext i8 %31 to i32
  %33 = add nsw i32 %32, %23
  %34 = trunc i32 %33 to i8
  store i8 %34, ptr %30, align 1, !tbaa !89
  %35 = load ptr, ptr %11, align 8, !tbaa !69
  %36 = getelementptr inbounds i8, ptr %35, i64 1
  %37 = load i8, ptr %36, align 1, !tbaa !89
  %38 = zext i8 %37 to i32
  %39 = load ptr, ptr %7, align 8, !tbaa !69
  %40 = load i32, ptr %12, align 4, !tbaa !49
  %41 = load i32, ptr %9, align 4, !tbaa !49
  %42 = mul nsw i32 %40, %41
  %43 = add nsw i32 %42, 1
  %44 = sext i32 %43 to i64
  %45 = getelementptr inbounds i8, ptr %39, i64 %44
  %46 = load i8, ptr %45, align 1, !tbaa !89
  %47 = zext i8 %46 to i32
  %48 = add nsw i32 %47, %38
  %49 = trunc i32 %48 to i8
  store i8 %49, ptr %45, align 1, !tbaa !89
  %50 = load ptr, ptr %11, align 8, !tbaa !69
  %51 = getelementptr inbounds i8, ptr %50, i64 2
  %52 = load i8, ptr %51, align 1, !tbaa !89
  %53 = zext i8 %52 to i32
  %54 = load ptr, ptr %7, align 8, !tbaa !69
  %55 = load i32, ptr %12, align 4, !tbaa !49
  %56 = load i32, ptr %9, align 4, !tbaa !49
  %57 = mul nsw i32 %55, %56
  %58 = add nsw i32 %57, 2
  %59 = sext i32 %58 to i64
  %60 = getelementptr inbounds i8, ptr %54, i64 %59
  %61 = load i8, ptr %60, align 1, !tbaa !89
  %62 = zext i8 %61 to i32
  %63 = add nsw i32 %62, %53
  %64 = trunc i32 %63 to i8
  store i8 %64, ptr %60, align 1, !tbaa !89
  %65 = load ptr, ptr %11, align 8, !tbaa !69
  %66 = getelementptr inbounds i8, ptr %65, i64 3
  %67 = load i8, ptr %66, align 1, !tbaa !89
  %68 = zext i8 %67 to i32
  %69 = load ptr, ptr %7, align 8, !tbaa !69
  %70 = load i32, ptr %12, align 4, !tbaa !49
  %71 = load i32, ptr %9, align 4, !tbaa !49
  %72 = mul nsw i32 %70, %71
  %73 = add nsw i32 %72, 3
  %74 = sext i32 %73 to i64
  %75 = getelementptr inbounds i8, ptr %69, i64 %74
  %76 = load i8, ptr %75, align 1, !tbaa !89
  %77 = zext i8 %76 to i32
  %78 = add nsw i32 %77, %68
  %79 = trunc i32 %78 to i8
  store i8 %79, ptr %75, align 1, !tbaa !89
  br label %80

80:                                               ; preds = %19, %15, %6
  ret void
}