; Function Attrs: mustprogress nofree norecurse nosync nounwind willreturn memory(argmem: readwrite) uwtable
define internal void @draw_sample_point_rgba_scale(ptr noundef captures(none) %0, i32 noundef %1, i32 noundef %2, ptr readnone captures(none) %3, ptr noundef readonly captures(none) %4, i32 noundef %5) #6 {
  %7 = icmp sgt i32 %5, -1
  %8 = icmp slt i32 %5, %1
  %or.cond = and i1 %7, %8
  br i1 %or.cond, label %9, label %31

9:                                                ; preds = %6
  %10 = load i8, ptr %4, align 1, !tbaa !96
  %11 = mul nsw i32 %5, %2
  %12 = sext i32 %11 to i64
  %13 = getelementptr inbounds i8, ptr %0, i64 %12
  %14 = load i8, ptr %13, align 1, !tbaa !96
  %15 = add i8 %14, %10
  store i8 %15, ptr %13, align 1, !tbaa !96
  %16 = getelementptr inbounds nuw i8, ptr %4, i64 1
  %17 = load i8, ptr %16, align 1, !tbaa !96
  %18 = getelementptr i8, ptr %13, i64 1
  %19 = load i8, ptr %18, align 1, !tbaa !96
  %20 = add i8 %19, %17
  store i8 %20, ptr %18, align 1, !tbaa !96
  %21 = getelementptr inbounds nuw i8, ptr %4, i64 2
  %22 = load i8, ptr %21, align 1, !tbaa !96
  %23 = getelementptr i8, ptr %13, i64 2
  %24 = load i8, ptr %23, align 1, !tbaa !96
  %25 = add i8 %24, %22
  store i8 %25, ptr %23, align 1, !tbaa !96
  %26 = getelementptr inbounds nuw i8, ptr %4, i64 3
  %27 = load i8, ptr %26, align 1, !tbaa !96
  %28 = getelementptr i8, ptr %13, i64 3
  %29 = load i8, ptr %28, align 1, !tbaa !96
  %30 = add i8 %29, %27
  store i8 %30, ptr %28, align 1, !tbaa !96
  br label %31

31:                                               ; preds = %9, %6
  ret void
}